target datalayout = "e-m:e-p270:32:32-p271:32:32-p272:64:64-i64:64-i128:128-f80:128-n8:16:32:64-S128"
target triple = "x86_64-pc-linux-gnu"

; Function Attrs: nounwind uwtable
define ptr @SUNDlsMat_NewIndexArray(i64 noundef %0) #0 {
  %2 = alloca ptr, align 8
  %3 = alloca i64, align 8
  %4 = alloca ptr, align 8
  %5 = alloca i32, align 4
  store i64 %0, ptr %3, align 8, !tbaa !3
  call void @llvm.lifetime.start.p0(i64 8, ptr %4) #4
  %6 = load i64, ptr %3, align 8, !tbaa !3
  %7 = icmp sle i64 %6, 0
  br i1 %7, label %8, label %9

8:                                                ; preds = %1
  store ptr null, ptr %2, align 8
  store i32 1, ptr %5, align 4
  br label %14

9:                                                ; preds = %1
  store ptr null, ptr %4, align 8, !tbaa !29
  %10 = load i64, ptr %3, align 8, !tbaa !3
  %11 = mul i64 %10, 8
  %12 = call noalias ptr @malloc(i64 noundef %11) #5
  store ptr %12, ptr %4, align 8, !tbaa !29
  %13 = load ptr, ptr %4, align 8, !tbaa !29
  store ptr %13, ptr %2, align 8
  store i32 1, ptr %5, align 4
  br label %14

14:                                               ; preds = %9, %8
  call void @llvm.lifetime.end.p0(i64 8, ptr %4) #4
  %15 = load ptr, ptr %2, align 8
  ret ptr %15
}