; Function Attrs: mustprogress nofree nounwind willreturn memory(inaccessiblemem: readwrite) uwtable
define noalias noundef ptr @SUNDlsMat_NewIndexArray(i64 noundef %0) local_unnamed_addr #4 {
  %2 = icmp slt i64 %0, 1
  br i1 %2, label %6, label %3

3:                                                ; preds = %1
  %4 = shl i64 %0, 3
  %5 = tail call noalias ptr @malloc(i64 noundef %4) #12
  br label %6

6:                                                ; preds = %1, %3
  %.0 = phi ptr [ %5, %3 ], [ null, %1 ]
  ret ptr %.0
}